; ModuleID = '52/3250.c'
source_filename = "52/3250.c"
target datalayout = "e-m:e-p270:32:32-p271:32:32-p272:64:64-i64:64-f80:128-n8:16:32:64-S128"
target triple = "x86_64-pc-linux-gnu"

@.str = private unnamed_addr constant [5 x i8] c"%d%d\00", align 1
@.str.1 = private unnamed_addr constant [3 x i8] c"%d\00", align 1
@.str.2 = private unnamed_addr constant [4 x i8] c"%d \00", align 1
@.str.3 = private unnamed_addr constant [4 x i8] c"%d\0A\00", align 1

; Function Attrs: noinline nounwind uwtable
define dso_local void @change(i32 %0, i32 %1, i32* %2) #0 {
  %4 = alloca i32, align 4
  %5 = alloca i32, align 4
  %6 = alloca i32*, align 8
  %7 = alloca i32, align 4
  %8 = alloca i32, align 4
  %9 = alloca i32, align 4
  store i32 %0, i32* %4, align 4
  store i32 %1, i32* %5, align 4
  store i32* %2, i32** %6, align 8
  store i32 0, i32* %7, align 4
  br label %10

10:                                               ; preds = %43, %3
  %11 = load i32, i32* %7, align 4
  %12 = load i32, i32* %5, align 4
  %13 = icmp slt i32 %11, %12
  br i1 %13, label %14, label %46

14:                                               ; preds = %10
  %15 = load i32*, i32** %6, align 8
  %16 = load i32, i32* %4, align 4
  %17 = sext i32 %16 to i64
  %18 = getelementptr inbounds i32, i32* %15, i64 %17
  %19 = getelementptr inbounds i32, i32* %18, i64 -1
  %20 = load i32, i32* %19, align 4
  store i32 %20, i32* %9, align 4
  %21 = load i32, i32* %4, align 4
  %22 = sub nsw i32 %21, 1
  store i32 %22, i32* %8, align 4
  br label %23

23:                                               ; preds = %37, %14
  %24 = load i32, i32* %8, align 4
  %25 = icmp sgt i32 %24, 0
  br i1 %25, label %26, label %40

26:                                               ; preds = %23
  %27 = load i32*, i32** %6, align 8
  %28 = load i32, i32* %8, align 4
  %29 = sext i32 %28 to i64
  %30 = getelementptr inbounds i32, i32* %27, i64 %29
  %31 = getelementptr inbounds i32, i32* %30, i64 -1
  %32 = load i32, i32* %31, align 4
  %33 = load i32*, i32** %6, align 8
  %34 = load i32, i32* %8, align 4
  %35 = sext i32 %34 to i64
  %36 = getelementptr inbounds i32, i32* %33, i64 %35
  store i32 %32, i32* %36, align 4
  br label %37

37:                                               ; preds = %26
  %38 = load i32, i32* %8, align 4
  %39 = add nsw i32 %38, -1
  store i32 %39, i32* %8, align 4
  br label %23

40:                                               ; preds = %23
  %41 = load i32, i32* %9, align 4
  %42 = load i32*, i32** %6, align 8
  store i32 %41, i32* %42, align 4
  br label %43

43:                                               ; preds = %40
  %44 = load i32, i32* %7, align 4
  %45 = add nsw i32 %44, 1
  store i32 %45, i32* %7, align 4
  br label %10

46:                                               ; preds = %10
  ret void
}

; Function Attrs: noinline nounwind uwtable
define dso_local void @main() #0 {
  %1 = alloca i32, align 4
  %2 = alloca i32, align 4
  %3 = alloca i32*, align 8
  %4 = alloca i32, align 4
  %5 = alloca i32, align 4
  store i32 0, i32* %5, align 4
  %6 = call i32 (i8*, ...) @__isoc99_scanf(i8* getelementptr inbounds ([5 x i8], [5 x i8]* @.str, i64 0, i64 0), i32* %1, i32* %2)
  %7 = load i32, i32* %1, align 4
  %8 = sext i32 %7 to i64
  %9 = mul i64 4, %8
  %10 = call noalias i8* @malloc(i64 %9) #3
  %11 = bitcast i8* %10 to i32*
  store i32* %11, i32** %3, align 8
  store i32 0, i32* %4, align 4
  br label %12

12:                                               ; preds = %22, %0
  %13 = load i32, i32* %4, align 4
  %14 = load i32, i32* %1, align 4
  %15 = icmp slt i32 %13, %14
  br i1 %15, label %16, label %25

16:                                               ; preds = %12
  %17 = load i32*, i32** %3, align 8
  %18 = load i32, i32* %4, align 4
  %19 = sext i32 %18 to i64
  %20 = getelementptr inbounds i32, i32* %17, i64 %19
  %21 = call i32 (i8*, ...) @__isoc99_scanf(i8* getelementptr inbounds ([3 x i8], [3 x i8]* @.str.1, i64 0, i64 0), i32* %20)
  br label %22

22:                                               ; preds = %16
  %23 = load i32, i32* %4, align 4
  %24 = add nsw i32 %23, 1
  store i32 %24, i32* %4, align 4
  br label %12

25:                                               ; preds = %12
  %26 = load i32, i32* %1, align 4
  %27 = load i32, i32* %2, align 4
  %28 = load i32*, i32** %3, align 8
  call void @change(i32 %26, i32 %27, i32* %28)
  store i32 0, i32* %4, align 4
  br label %29

29:                                               ; preds = %41, %25
  %30 = load i32, i32* %4, align 4
  %31 = load i32, i32* %1, align 4
  %32 = sub nsw i32 %31, 1
  %33 = icmp slt i32 %30, %32
  br i1 %33, label %34, label %44

34:                                               ; preds = %29
  %35 = load i32*, i32** %3, align 8
  %36 = load i32, i32* %4, align 4
  %37 = sext i32 %36 to i64
  %38 = getelementptr inbounds i32, i32* %35, i64 %37
  %39 = load i32, i32* %38, align 4
  %40 = call i32 (i8*, ...) @printf(i8* getelementptr inbounds ([4 x i8], [4 x i8]* @.str.2, i64 0, i64 0), i32 %39)
  br label %41

41:                                               ; preds = %34
  %42 = load i32, i32* %4, align 4
  %43 = add nsw i32 %42, 1
  store i32 %43, i32* %4, align 4
  br label %29

44:                                               ; preds = %29
  %45 = load i32*, i32** %3, align 8
  %46 = load i32, i32* %4, align 4
  %47 = sext i32 %46 to i64
  %48 = getelementptr inbounds i32, i32* %45, i64 %47
  %49 = load i32, i32* %48, align 4
  %50 = call i32 (i8*, ...) @printf(i8* getelementptr inbounds ([4 x i8], [4 x i8]* @.str.3, i64 0, i64 0), i32 %49)
  ret void
}

declare dso_local i32 @__isoc99_scanf(i8*, ...) #1

; Function Attrs: nounwind
declare dso_local noalias i8* @malloc(i64) #2

declare dso_local i32 @printf(i8*, ...) #1


!llvm.module.flags = !{!0}
!llvm.ident = !{!1}

!0 = !{i32 1, !"wchar_size", i32 4}
!1 = !{!"clang version 10.0.0-4ubuntu1 "}
